
build/bin/ToyOS.bin:     file format elf32-i386


Disassembly of section .text:

00100000 <start_-0xc>:
  100000:	02 b0 ad 1b 03 00    	add    0x31bad(%eax),%dh
  100006:	00 00                	add    %al,(%eax)
  100008:	fb                   	sti    
  100009:	4f                   	dec    %edi
  10000a:	52                   	push   %edx
  10000b:	e4                 	in     $0xbc,%al

0010000c <start_>:
  10000c:	bc be 4f 10 00       	mov    $0x104fbe,%esp
  100011:	e8 c6 01 00 00       	call   1001dc <_kernel_init>
  100016:	53                   	push   %ebx
  100017:	e8 c2 01 00 00       	call   1001de <_kernel_main>
  10001c:	fa                   	cli    

0010001d <j_>:
  10001d:	f4                   	hlt    
  10001e:	eb fd                	jmp    10001d <j_>

00100020 <tty_set_theme>:
  100020:	83 ec 08             	sub    $0x8,%esp
  100023:	8b 54 24 0c          	mov    0xc(%esp),%edx
  100027:	8b 44 24 10          	mov    0x10(%esp),%eax
  10002b:	66 89 54 24 04       	mov    %dx,0x4(%esp)
  100030:	66 89 04 24          	mov    %ax,(%esp)
  100034:	0f b7 04 24          	movzwl (%esp),%eax
  100038:	c1 e0 04             	shl    $0x4,%eax
  10003b:	89 c2                	mov    %eax,%edx
  10003d:	0f b7 44 24 04       	movzwl 0x4(%esp),%eax
  100042:	09 d0                	or     %edx,%eax
  100044:	c1 e0 08             	shl    $0x8,%eax
  100047:	66 a3 c0 4f 10 00    	mov    %ax,0x104fc0
  10004d:	90                   	nop
  10004e:	83 c4 08             	add    $0x8,%esp
  100051:	c3                   	ret    

00100052 <tty_put_char>:
  100052:	56                   	push   %esi
  100053:	53                   	push   %ebx
  100054:	83 ec 14             	sub    $0x14,%esp
  100057:	8b 44 24 20          	mov    0x20(%esp),%eax
  10005b:	88 44 24 0c          	mov    %al,0xc(%esp)
  10005f:	80 7c 24 0c 0a       	cmpb   $0xa,0xc(%esp)
  100064:	75 3c                	jne    1000a2 <tty_put_char+0x50>
  100066:	c7 05 c4 4f 10 00 00 	movl   $0x0,0x104fc4
  10006d:	00 00 00 
  100070:	0f b7 05 c8 4f 10 00 	movzwl 0x104fc8,%eax
  100077:	83 c0 01             	add    $0x1,%eax
  10007a:	66 a3 c8 4f 10 00    	mov    %ax,0x104fc8
  100080:	0f b7 05 c8 4f 10 00 	movzwl 0x104fc8,%eax
  100087:	66 83 f8 18          	cmp    $0x18,%ax
  10008b:	76 15                	jbe    1000a2 <tty_put_char+0x50>
  10008d:	e8 e9 00 00 00       	call   10017b <tty_scroll_up>
  100092:	0f b7 05 c8 4f 10 00 	movzwl 0x104fc8,%eax
  100099:	83 e8 01             	sub    $0x1,%eax
  10009c:	66 a3 c8 4f 10 00    	mov    %ax,0x104fc8
  1000a2:	80 7c 24 0c 0d       	cmpb   $0xd,0xc(%esp)
  1000a7:	75 0c                	jne    1000b5 <tty_put_char+0x63>
  1000a9:	c7 05 c4 4f 10 00 00 	movl   $0x0,0x104fc4
  1000b0:	00 00 00 
  1000b3:	eb 49                	jmp    1000fe <tty_put_char+0xac>
  1000b5:	66 0f be 44 24 0c    	movsbw 0xc(%esp),%ax
  1000bb:	0f b7 15 c0 4f 10 00 	movzwl 0x104fc0,%edx
  1000c2:	09 d0                	or     %edx,%eax
  1000c4:	89 c3                	mov    %eax,%ebx
  1000c6:	8b 0d 00 50 10 00    	mov    0x105000,%ecx
  1000cc:	a1 c4 4f 10 00       	mov    0x104fc4,%eax
  1000d1:	8d 34 00             	lea    (%eax,%eax,1),%esi
  1000d4:	0f b7 05 c8 4f 10 00 	movzwl 0x104fc8,%eax
  1000db:	0f b7 d0             	movzwl %ax,%edx
  1000de:	89 d0                	mov    %edx,%eax
  1000e0:	c1 e0 02             	shl    $0x2,%eax
  1000e3:	01 d0                	add    %edx,%eax
  1000e5:	c1 e0 05             	shl    $0x5,%eax
  1000e8:	01 f0                	add    %esi,%eax
  1000ea:	01 c8                	add    %ecx,%eax
  1000ec:	89 da                	mov    %ebx,%edx
  1000ee:	66 89 10             	mov    %dx,(%eax)
  1000f1:	a1 c4 4f 10 00       	mov    0x104fc4,%eax
  1000f6:	83 c0 01             	add    $0x1,%eax
  1000f9:	a3 c4 4f 10 00       	mov    %eax,0x104fc4
  1000fe:	a1 c4 4f 10 00       	mov    0x104fc4,%eax
  100103:	83 f8 4f             	cmp    $0x4f,%eax
  100106:	76 3c                	jbe    100144 <tty_put_char+0xf2>
  100108:	c7 05 c4 4f 10 00 00 	movl   $0x0,0x104fc4
  10010f:	00 00 00 
  100112:	0f b7 05 c8 4f 10 00 	movzwl 0x104fc8,%eax
  100119:	83 c0 01             	add    $0x1,%eax
  10011c:	66 a3 c8 4f 10 00    	mov    %ax,0x104fc8
  100122:	0f b7 05 c8 4f 10 00 	movzwl 0x104fc8,%eax
  100129:	66 83 f8 18          	cmp    $0x18,%ax
  10012d:	76 15                	jbe    100144 <tty_put_char+0xf2>
  10012f:	e8 47 00 00 00       	call   10017b <tty_scroll_up>
  100134:	0f b7 05 c8 4f 10 00 	movzwl 0x104fc8,%eax
  10013b:	83 e8 01             	sub    $0x1,%eax
  10013e:	66 a3 c8 4f 10 00    	mov    %ax,0x104fc8
  100144:	90                   	nop
  100145:	83 c4 14             	add    $0x14,%esp
  100148:	5b                   	pop    %ebx
  100149:	5e                   	pop    %esi
  10014a:	c3                   	ret    

0010014b <tty_put_str>:
  10014b:	83 ec 0c             	sub    $0xc,%esp
  10014e:	eb 1b                	jmp    10016b <tty_put_str+0x20>
  100150:	8b 44 24 10          	mov    0x10(%esp),%eax
  100154:	0f b6 00             	movzbl (%eax),%eax
  100157:	0f be c0             	movsbl %al,%eax
  10015a:	83 ec 0c             	sub    $0xc,%esp
  10015d:	50                   	push   %eax
  10015e:	e8 ef fe ff ff       	call   100052 <tty_put_char>
  100163:	83 c4 10             	add    $0x10,%esp
  100166:	83 44 24 10 01       	addl   $0x1,0x10(%esp)
  10016b:	8b 44 24 10          	mov    0x10(%esp),%eax
  10016f:	0f b6 00             	movzbl (%eax),%eax
  100172:	84 c0                	test   %al,%al
  100174:	75 da                	jne    100150 <tty_put_str+0x5>
  100176:	90                   	nop
  100177:	83 c4 0c             	add    $0xc,%esp
  10017a:	c3                   	ret    

0010017b <tty_scroll_up>:
  10017b:	90                   	nop
  10017c:	c3                   	ret    

0010017d <tty_clear>:
  10017d:	83 ec 10             	sub    $0x10,%esp
  100180:	c7 44 24 0c 00 00 00 	movl   $0x0,0xc(%esp)
  100187:	00 
  100188:	eb 46                	jmp    1001d0 <tty_clear+0x53>
  10018a:	c7 44 24 08 00 00 00 	movl   $0x0,0x8(%esp)
  100191:	00 
  100192:	eb 30                	jmp    1001c4 <tty_clear+0x47>
  100194:	8b 0d 00 50 10 00    	mov    0x105000,%ecx
  10019a:	8b 54 24 08          	mov    0x8(%esp),%edx
  10019e:	89 d0                	mov    %edx,%eax
  1001a0:	c1 e0 02             	shl    $0x2,%eax
  1001a3:	01 d0                	add    %edx,%eax
  1001a5:	c1 e0 04             	shl    $0x4,%eax
  1001a8:	89 c2                	mov    %eax,%edx
  1001aa:	8b 44 24 0c          	mov    0xc(%esp),%eax
  1001ae:	01 d0                	add    %edx,%eax
  1001b0:	01 c0                	add    %eax,%eax
  1001b2:	8d 14 01             	lea    (%ecx,%eax,1),%edx
  1001b5:	0f b7 05 c0 4f 10 00 	movzwl 0x104fc0,%eax
  1001bc:	66 89 02             	mov    %ax,(%edx)
  1001bf:	83 44 24 08 01       	addl   $0x1,0x8(%esp)
  1001c4:	83 7c 24 08 18       	cmpl   $0x18,0x8(%esp)
  1001c9:	76 c9                	jbe    100194 <tty_clear+0x17>
  1001cb:	83 44 24 0c 01       	addl   $0x1,0xc(%esp)
  1001d0:	83 7c 24 0c 4f       	cmpl   $0x4f,0xc(%esp)
  1001d5:	76 b3                	jbe    10018a <tty_clear+0xd>
  1001d7:	90                   	nop
  1001d8:	83 c4 10             	add    $0x10,%esp
  1001db:	c3                   	ret    

001001dc <_kernel_init>:
  1001dc:	90                   	nop
  1001dd:	c3                   	ret    

001001de <_kernel_main>:
  1001de:	83 ec 0c             	sub    $0xc,%esp
  1001e1:	83 ec 08             	sub    $0x8,%esp
  1001e4:	6a 00                	push   $0x0
  1001e6:	6a 0f                	push   $0xf
  1001e8:	e8 33 fe ff ff       	call   100020 <tty_set_theme>
  1001ed:	83 c4 10             	add    $0x10,%esp
  1001f0:	83 ec 0c             	sub    $0xc,%esp
  1001f3:	68 00 60 10 00       	push   $0x106000
  1001f8:	e8 4e ff ff ff       	call   10014b <tty_put_str>
  1001fd:	83 c4 10             	add    $0x10,%esp
  100200:	90                   	nop
  100201:	83 c4 0c             	add    $0xc,%esp
  100204:	c3                   	ret    
